target datalayout = "e-m:e-p270:32:32-p271:32:32-p272:64:64-i64:64-i128:128-f80:128-n8:16:32:64-S128"
target triple = "x86_64-pc-linux-gnu"

%struct.RelationData = type { %struct.RelFileLocator, ptr, i32, i32, i8, i8, i8, i8, i8, i32, i32, i32, i32, ptr, ptr, i32, %struct.LockInfoData, ptr, ptr, ptr, ptr, ptr, i8, ptr, ptr, ptr, ptr, ptr, ptr, i32, ptr, i8, ptr, ptr, i32, i8, i32, ptr, i8, ptr, ptr, ptr, ptr, ptr, ptr, ptr, i32, ptr, ptr, ptr, ptr, ptr, ptr, ptr, ptr, ptr, ptr, ptr, ptr, ptr, ptr, ptr, ptr, ptr, ptr, ptr, i32, i8, ptr }
%struct.RelFileLocator = type { i32, i32, i32 }
%struct.LockInfoData = type { %struct.LockRelId }
%struct.LockRelId = type { i32, i32 }
%struct.ScanKeyData = type { i32, i16, i16, i32, i32, %struct.FmgrInfo, i64 }
%struct.FmgrInfo = type { ptr, i32, i16, i8, i8, i8, ptr, ptr, ptr }
%struct.FormData_pg_shdepend = type { i32, i32, i32, i32, i32, i32, i8 }
%struct.HeapTupleData = type { i32, %struct.ItemPointerData, i32, ptr }
%struct.ItemPointerData = type { %struct.BlockIdData, i16 }
%struct.BlockIdData = type { i16, i16 }
%struct.HeapTupleHeaderData = type { %union.anon, %struct.ItemPointerData, i16, i16, i8, [0 x i8] }
%union.anon = type { %struct.HeapTupleFields }
%struct.HeapTupleFields = type { i32, i32, %union.anon.0 }
%union.anon.0 = type { i32 }

@.str.1 = private unnamed_addr constant [14 x i8] c"pg_shdepend.c\00", align 1
@MyDatabaseId = external global i32, align 4
@.str.14 = private unnamed_addr constant [60 x i8] c"multiple pg_shdepend entries for object %u/%u/%d deptype %c\00", align 1
@__func__.shdepChangeDep = private unnamed_addr constant [15 x i8] c"shdepChangeDep\00", align 1

; Function Attrs: inlinehint nounwind uwtable
define internal i64 @CharGetDatum(i8 noundef signext %0) #4 {
  %2 = alloca i8, align 1
  store i8 %0, ptr %2, align 1
  %3 = load i8, ptr %2, align 1
  %4 = sext i8 %3 to i64
  ret i64 %4
}

; Function Attrs: inlinehint nounwind uwtable
define internal ptr @GETSTRUCT(ptr noundef %0) #4 {
  %2 = alloca ptr, align 8
  store ptr %0, ptr %2, align 8
  %3 = load ptr, ptr %2, align 8
  %4 = getelementptr inbounds nuw %struct.HeapTupleData, ptr %3, i32 0, i32 3
  %5 = load ptr, ptr %4, align 8
  %6 = load ptr, ptr %2, align 8
  %7 = getelementptr inbounds nuw %struct.HeapTupleData, ptr %6, i32 0, i32 3
  %8 = load ptr, ptr %7, align 8
  %9 = getelementptr inbounds nuw %struct.HeapTupleHeaderData, ptr %8, i32 0, i32 4
  %10 = load i8, ptr %9, align 2
  %11 = zext i8 %10 to i32
  %12 = sext i32 %11 to i64
  %13 = getelementptr inbounds i8, ptr %5, i64 %12
  ret ptr %13
}

; Function Attrs: inlinehint nounwind uwtable
define internal i64 @Int32GetDatum(i32 noundef %0) #4 {
  %2 = alloca i32, align 4
  store i32 %0, ptr %2, align 4
  %3 = load i32, ptr %2, align 4
  %4 = sext i32 %3 to i64
  ret i64 %4
}

; Function Attrs: inlinehint nounwind uwtable
define internal i64 @ObjectIdGetDatum(i32 noundef %0) #4 {
  %2 = alloca i32, align 4
  store i32 %0, ptr %2, align 4
  %3 = load i32, ptr %2, align 4
  %4 = zext i32 %3 to i64
  ret i64 %4
}

; Function Attrs: nounwind uwtable
define internal i32 @classIdGetDbId(i32 noundef %0) #0 {
  %2 = alloca i32, align 4
  %3 = alloca i32, align 4
  store i32 %0, ptr %2, align 4
  call void @llvm.lifetime.start.p0(i64 4, ptr %3) #7
  %4 = load i32, ptr %2, align 4
  %5 = call zeroext i1 @IsSharedRelation(i32 noundef %4)
  br i1 %5, label %6, label %7

6:                                                ; preds = %1
  store i32 0, ptr %3, align 4
  br label %9

7:                                                ; preds = %1
  %8 = load i32, ptr @MyDatabaseId, align 4
  store i32 %8, ptr %3, align 4
  br label %9

9:                                                ; preds = %7, %6
  %10 = load i32, ptr %3, align 4
  call void @llvm.lifetime.end.p0(i64 4, ptr %3) #7
  ret i32 %10
}

; Function Attrs: nounwind uwtable
define internal void @shdepChangeDep(ptr noundef %0, i32 noundef %1, i32 noundef %2, i32 noundef %3, i32 noundef %4, i32 noundef %5, i32 noundef %6) #0 {
  %8 = alloca ptr, align 8
  %9 = alloca i32, align 4
  %10 = alloca i32, align 4
  %11 = alloca i32, align 4
  %12 = alloca i32, align 4
  %13 = alloca i32, align 4
  %14 = alloca i32, align 4
  %15 = alloca i32, align 4
  %16 = alloca ptr, align 8
  %17 = alloca ptr, align 8
  %18 = alloca [4 x %struct.ScanKeyData], align 16
  %19 = alloca ptr, align 8
  %20 = alloca ptr, align 8
  %21 = alloca [7 x i64], align 16
  %22 = alloca [7 x i8], align 1
  store ptr %0, ptr %8, align 8
  store i32 %1, ptr %9, align 4
  store i32 %2, ptr %10, align 4
  store i32 %3, ptr %11, align 4
  store i32 %4, ptr %12, align 4
  store i32 %5, ptr %13, align 4
  store i32 %6, ptr %14, align 4
  call void @llvm.lifetime.start.p0(i64 4, ptr %15) #7
  %23 = load i32, ptr %9, align 4
  %24 = call i32 @classIdGetDbId(i32 noundef %23)
  store i32 %24, ptr %15, align 4
  call void @llvm.lifetime.start.p0(i64 8, ptr %16) #7
  store ptr null, ptr %16, align 8
  call void @llvm.lifetime.start.p0(i64 8, ptr %17) #7
  call void @llvm.lifetime.start.p0(i64 288, ptr %18) #7
  call void @llvm.lifetime.start.p0(i64 8, ptr %19) #7
  %25 = load i32, ptr %12, align 4
  %26 = load i32, ptr %13, align 4
  call void @shdepLockAndCheckObject(i32 noundef %25, i32 noundef %26)
  %27 = getelementptr inbounds [4 x %struct.ScanKeyData], ptr %18, i64 0, i64 0
  %28 = load i32, ptr %15, align 4
  %29 = call i64 @ObjectIdGetDatum(i32 noundef %28)
  call void @ScanKeyInit(ptr noundef %27, i16 noundef signext 1, i16 noundef zeroext 3, i32 noundef 184, i64 noundef %29)
  %30 = getelementptr inbounds [4 x %struct.ScanKeyData], ptr %18, i64 0, i64 1
  %31 = load i32, ptr %9, align 4
  %32 = call i64 @ObjectIdGetDatum(i32 noundef %31)
  call void @ScanKeyInit(ptr noundef %30, i16 noundef signext 2, i16 noundef zeroext 3, i32 noundef 184, i64 noundef %32)
  %33 = getelementptr inbounds [4 x %struct.ScanKeyData], ptr %18, i64 0, i64 2
  %34 = load i32, ptr %10, align 4
  %35 = call i64 @ObjectIdGetDatum(i32 noundef %34)
  call void @ScanKeyInit(ptr noundef %33, i16 noundef signext 3, i16 noundef zeroext 3, i32 noundef 184, i64 noundef %35)
  %36 = getelementptr inbounds [4 x %struct.ScanKeyData], ptr %18, i64 0, i64 3
  %37 = load i32, ptr %11, align 4
  %38 = call i64 @Int32GetDatum(i32 noundef %37)
  call void @ScanKeyInit(ptr noundef %36, i16 noundef signext 4, i16 noundef zeroext 3, i32 noundef 65, i64 noundef %38)
  %39 = load ptr, ptr %8, align 8
  %40 = getelementptr inbounds [4 x %struct.ScanKeyData], ptr %18, i64 0, i64 0
  %41 = call ptr @systable_beginscan(ptr noundef %39, i32 noundef 1232, i1 noundef zeroext true, ptr noundef null, i32 noundef 4, ptr noundef %40)
  store ptr %41, ptr %19, align 8
  br label %42

42:                                               ; preds = %73, %54, %7
  %43 = load ptr, ptr %19, align 8
  %44 = call ptr @systable_getnext(ptr noundef %43)
  store ptr %44, ptr %17, align 8
  %45 = icmp ne ptr %44, null
  br i1 %45, label %46, label %76

46:                                               ; preds = %42
  %47 = load ptr, ptr %17, align 8
  %48 = call ptr @GETSTRUCT(ptr noundef %47)
  %49 = getelementptr inbounds nuw %struct.FormData_pg_shdepend, ptr %48, i32 0, i32 6
  %50 = load i8, ptr %49, align 4
  %51 = sext i8 %50 to i32
  %52 = load i32, ptr %14, align 4
  %53 = icmp ne i32 %51, %52
  br i1 %53, label %54, label %55

54:                                               ; preds = %46
  br label %42, !llvm.loop !4

55:                                               ; preds = %46
  %56 = load ptr, ptr %16, align 8
  %57 = icmp ne ptr %56, null
  br i1 %57, label %58, label %73

58:                                               ; preds = %55
  br label %59

59:                                               ; preds = %58
  br i1 true, label %60, label %62

60:                                               ; preds = %59
  %61 = call zeroext i1 @errstart_cold(i32 noundef 21, ptr noundef null) #8
  br i1 %61, label %64, label %70

62:                                               ; preds = %59
  %63 = call zeroext i1 @errstart(i32 noundef 21, ptr noundef null)
  br i1 %63, label %64, label %70

64:                                               ; preds = %62, %60
  %65 = load i32, ptr %9, align 4
  %66 = load i32, ptr %10, align 4
  %67 = load i32, ptr %11, align 4
  %68 = load i32, ptr %14, align 4
  %69 = call i32 (ptr, ...) @errmsg_internal(ptr noundef @.str.14, i32 noundef %65, i32 noundef %66, i32 noundef %67, i32 noundef %68)
  call void @errfinish(ptr noundef @.str.1, i32 noundef 255, ptr noundef @__func__.shdepChangeDep)
  br label %70

70:                                               ; preds = %64, %62, %60
  unreachable

71:                                               ; No predecessors!
  br label %72

72:                                               ; preds = %71
  br label %73

73:                                               ; preds = %72, %55
  %74 = load ptr, ptr %17, align 8
  %75 = call ptr @heap_copytuple(ptr noundef %74)
  store ptr %75, ptr %16, align 8
  br label %42, !llvm.loop !4

76:                                               ; preds = %42
  %77 = load ptr, ptr %19, align 8
  call void @systable_endscan(ptr noundef %77)
  %78 = load i32, ptr %12, align 4
  %79 = load i32, ptr %13, align 4
  %80 = call zeroext i1 @IsPinnedObject(i32 noundef %78, i32 noundef %79)
  br i1 %80, label %81, label %89

81:                                               ; preds = %76
  %82 = load ptr, ptr %16, align 8
  %83 = icmp ne ptr %82, null
  br i1 %83, label %84, label %88

84:                                               ; preds = %81
  %85 = load ptr, ptr %8, align 8
  %86 = load ptr, ptr %16, align 8
  %87 = getelementptr inbounds nuw %struct.HeapTupleData, ptr %86, i32 0, i32 1
  call void @CatalogTupleDelete(ptr noundef %85, ptr noundef %87)
  br label %88

88:                                               ; preds = %84, %81
  br label %138

89:                                               ; preds = %76
  %90 = load ptr, ptr %16, align 8
  %91 = icmp ne ptr %90, null
  br i1 %91, label %92, label %105

92:                                               ; preds = %89
  call void @llvm.lifetime.start.p0(i64 8, ptr %20) #7
  %93 = load ptr, ptr %16, align 8
  %94 = call ptr @GETSTRUCT(ptr noundef %93)
  store ptr %94, ptr %20, align 8
  %95 = load i32, ptr %12, align 4
  %96 = load ptr, ptr %20, align 8
  %97 = getelementptr inbounds nuw %struct.FormData_pg_shdepend, ptr %96, i32 0, i32 4
  store i32 %95, ptr %97, align 4
  %98 = load i32, ptr %13, align 4
  %99 = load ptr, ptr %20, align 8
  %100 = getelementptr inbounds nuw %struct.FormData_pg_shdepend, ptr %99, i32 0, i32 5
  store i32 %98, ptr %100, align 4
  %101 = load ptr, ptr %8, align 8
  %102 = load ptr, ptr %16, align 8
  %103 = getelementptr inbounds nuw %struct.HeapTupleData, ptr %102, i32 0, i32 1
  %104 = load ptr, ptr %16, align 8
  call void @CatalogTupleUpdate(ptr noundef %101, ptr noundef %103, ptr noundef %104)
  call void @llvm.lifetime.end.p0(i64 8, ptr %20) #7
  br label %137

105:                                              ; preds = %89
  call void @llvm.lifetime.start.p0(i64 56, ptr %21) #7
  call void @llvm.lifetime.start.p0(i64 7, ptr %22) #7
  %106 = getelementptr inbounds [7 x i8], ptr %22, i64 0, i64 0
  call void @llvm.memset.p0.i64(ptr align 1 %106, i8 0, i64 7, i1 false)
  %107 = load i32, ptr %15, align 4
  %108 = call i64 @ObjectIdGetDatum(i32 noundef %107)
  %109 = getelementptr inbounds [7 x i64], ptr %21, i64 0, i64 0
  store i64 %108, ptr %109, align 16
  %110 = load i32, ptr %9, align 4
  %111 = call i64 @ObjectIdGetDatum(i32 noundef %110)
  %112 = getelementptr inbounds [7 x i64], ptr %21, i64 0, i64 1
  store i64 %111, ptr %112, align 8
  %113 = load i32, ptr %10, align 4
  %114 = call i64 @ObjectIdGetDatum(i32 noundef %113)
  %115 = getelementptr inbounds [7 x i64], ptr %21, i64 0, i64 2
  store i64 %114, ptr %115, align 16
  %116 = load i32, ptr %11, align 4
  %117 = call i64 @Int32GetDatum(i32 noundef %116)
  %118 = getelementptr inbounds [7 x i64], ptr %21, i64 0, i64 3
  store i64 %117, ptr %118, align 8
  %119 = load i32, ptr %12, align 4
  %120 = call i64 @ObjectIdGetDatum(i32 noundef %119)
  %121 = getelementptr inbounds [7 x i64], ptr %21, i64 0, i64 4
  store i64 %120, ptr %121, align 16
  %122 = load i32, ptr %13, align 4
  %123 = call i64 @ObjectIdGetDatum(i32 noundef %122)
  %124 = getelementptr inbounds [7 x i64], ptr %21, i64 0, i64 5
  store i64 %123, ptr %124, align 8
  %125 = load i32, ptr %14, align 4
  %126 = trunc i32 %125 to i8
  %127 = call i64 @CharGetDatum(i8 noundef signext %126)
  %128 = getelementptr inbounds [7 x i64], ptr %21, i64 0, i64 6
  store i64 %127, ptr %128, align 16
  %129 = load ptr, ptr %8, align 8
  %130 = getelementptr inbounds nuw %struct.RelationData, ptr %129, i32 0, i32 14
  %131 = load ptr, ptr %130, align 8
  %132 = getelementptr inbounds [7 x i64], ptr %21, i64 0, i64 0
  %133 = getelementptr inbounds [7 x i8], ptr %22, i64 0, i64 0
  %134 = call ptr @heap_form_tuple(ptr noundef %131, ptr noundef %132, ptr noundef %133)
  store ptr %134, ptr %16, align 8
  %135 = load ptr, ptr %8, align 8
  %136 = load ptr, ptr %16, align 8
  call void @CatalogTupleInsert(ptr noundef %135, ptr noundef %136)
  call void @llvm.lifetime.end.p0(i64 7, ptr %22) #7
  call void @llvm.lifetime.end.p0(i64 56, ptr %21) #7
  br label %137

137:                                              ; preds = %105, %92
  br label %138

138:                                              ; preds = %137, %88
  %139 = load ptr, ptr %16, align 8
  %140 = icmp ne ptr %139, null
  br i1 %140, label %141, label %143

141:                                              ; preds = %138
  %142 = load ptr, ptr %16, align 8
  call void @heap_freetuple(ptr noundef %142)
  br label %143

143:                                              ; preds = %141, %138
  call void @llvm.lifetime.end.p0(i64 8, ptr %19) #7
  call void @llvm.lifetime.end.p0(i64 288, ptr %18) #7
  call void @llvm.lifetime.end.p0(i64 8, ptr %17) #7
  call void @llvm.lifetime.end.p0(i64 8, ptr %16) #7
  call void @llvm.lifetime.end.p0(i64 4, ptr %15) #7
  ret void
}