; Function Attrs: nounwind uwtable
define internal fastcc void @shdepChangeDep(ptr noundef %0, i32 noundef %1, i32 noundef %2, i32 noundef range(i32 1213, 1261) %3, i32 noundef %4, i32 noundef range(i32 111, 117) %5) unnamed_addr #0 {
  %7 = alloca [4 x %struct.ScanKeyData], align 16
  %8 = alloca [7 x i64], align 16
  %9 = alloca [7 x i8], align 1
  %10 = tail call zeroext i1 @IsSharedRelation(i32 noundef %1) #8
  %11 = load i32, ptr @MyDatabaseId, align 4
  call void @llvm.lifetime.start.p0(i64 288, ptr nonnull %7) #8
  tail call void @shdepLockAndCheckObject(i32 noundef %3, i32 noundef %4)
  %12 = zext i32 %11 to i64
  %13 = select i1 %10, i64 0, i64 %12
  call void @ScanKeyInit(ptr noundef nonnull %7, i16 noundef signext 1, i16 noundef zeroext 3, i32 noundef 184, i64 noundef %13) #8
  %14 = getelementptr inbounds nuw i8, ptr %7, i64 72
  %15 = zext i32 %1 to i64
  call void @ScanKeyInit(ptr noundef nonnull %14, i16 noundef signext 2, i16 noundef zeroext 3, i32 noundef 184, i64 noundef %15) #8
  %16 = getelementptr inbounds nuw i8, ptr %7, i64 144
  %17 = zext i32 %2 to i64
  call void @ScanKeyInit(ptr noundef nonnull %16, i16 noundef signext 3, i16 noundef zeroext 3, i32 noundef 184, i64 noundef %17) #8
  %18 = getelementptr inbounds nuw i8, ptr %7, i64 216
  call void @ScanKeyInit(ptr noundef nonnull %18, i16 noundef signext 4, i16 noundef zeroext 3, i32 noundef 65, i64 noundef 0) #8
  %19 = call ptr @systable_beginscan(ptr noundef %0, i32 noundef 1232, i1 noundef zeroext true, ptr noundef null, i32 noundef 4, ptr noundef nonnull %7) #8
  br label %.outer

.outer:                                           ; preds = %35, %6
  %.0.ph = phi ptr [ %36, %35 ], [ null, %6 ]
  br label %20

20:                                               ; preds = %.outer, %22
  %21 = call ptr @systable_getnext(ptr noundef %19) #8
  %.not = icmp eq ptr %21, null
  br i1 %.not, label %37, label %22

22:                                               ; preds = %20
  %23 = getelementptr i8, ptr %21, i64 16
  %.val = load ptr, ptr %23, align 8
  %24 = getelementptr inbounds nuw i8, ptr %.val, i64 22
  %25 = load i8, ptr %24, align 2
  %26 = zext i8 %25 to i64
  %27 = getelementptr inbounds nuw i8, ptr %.val, i64 %26
  %28 = getelementptr inbounds nuw i8, ptr %27, i64 24
  %29 = load i8, ptr %28, align 4
  %30 = sext i8 %29 to i32
  %.not48 = icmp eq i32 %5, %30
  br i1 %.not48, label %31, label %20, !llvm.loop !4

31:                                               ; preds = %22
  %.not49 = icmp eq ptr %.0.ph, null
  br i1 %.not49, label %35, label %32

32:                                               ; preds = %31
  %33 = call zeroext i1 @errstart_cold(i32 noundef 21, ptr noundef null) #9
  call void @llvm.assume(i1 %33)
  %34 = call i32 (ptr, ...) @errmsg_internal(ptr noundef nonnull @.str.14, i32 noundef %1, i32 noundef %2, i32 noundef 0, i32 noundef %5) #8
  call void @errfinish(ptr noundef nonnull @.str.1, i32 noundef 255, ptr noundef nonnull @__func__.shdepChangeDep) #8
  unreachable

35:                                               ; preds = %31
  %36 = call ptr @heap_copytuple(ptr noundef nonnull %21) #8
  br label %.outer, !llvm.loop !4

37:                                               ; preds = %20
  call void @systable_endscan(ptr noundef %19) #8
  %38 = call zeroext i1 @IsPinnedObject(i32 noundef %3, i32 noundef %4) #8
  %.not46 = icmp eq ptr %.0.ph, null
  br i1 %38, label %39, label %42

39:                                               ; preds = %37
  br i1 %.not46, label %.thread53, label %40

40:                                               ; preds = %39
  %41 = getelementptr inbounds nuw i8, ptr %.0.ph, i64 4
  call void @CatalogTupleDelete(ptr noundef %0, ptr noundef nonnull %41) #8
  br label %.thread

42:                                               ; preds = %37
  br i1 %.not46, label %52, label %43

43:                                               ; preds = %42
  %44 = getelementptr i8, ptr %.0.ph, i64 16
  %.0.val = load ptr, ptr %44, align 8
  %45 = getelementptr inbounds nuw i8, ptr %.0.val, i64 22
  %46 = load i8, ptr %45, align 2
  %47 = zext i8 %46 to i64
  %48 = getelementptr inbounds nuw i8, ptr %.0.val, i64 %47
  %49 = getelementptr inbounds nuw i8, ptr %48, i64 16
  store i32 %3, ptr %49, align 4
  %50 = getelementptr inbounds nuw i8, ptr %48, i64 20
  store i32 %4, ptr %50, align 4
  %51 = getelementptr inbounds nuw i8, ptr %.0.ph, i64 4
  call void @CatalogTupleUpdate(ptr noundef %0, ptr noundef nonnull %51, ptr noundef nonnull %.0.ph) #8
  br label %.thread

52:                                               ; preds = %42
  call void @llvm.lifetime.start.p0(i64 56, ptr nonnull %8) #8
  call void @llvm.lifetime.start.p0(i64 7, ptr nonnull %9) #8
  call void @llvm.memset.p0.i64(ptr noundef nonnull align 1 dereferenceable(7) %9, i8 0, i64 7, i1 false)
  store i64 %13, ptr %8, align 16
  %53 = getelementptr inbounds nuw i8, ptr %8, i64 8
  store i64 %15, ptr %53, align 8
  %54 = getelementptr inbounds nuw i8, ptr %8, i64 16
  store i64 %17, ptr %54, align 16
  %55 = getelementptr inbounds nuw i8, ptr %8, i64 24
  store i64 0, ptr %55, align 8
  %56 = zext nneg i32 %3 to i64
  %57 = getelementptr inbounds nuw i8, ptr %8, i64 32
  store i64 %56, ptr %57, align 16
  %58 = zext i32 %4 to i64
  %59 = getelementptr inbounds nuw i8, ptr %8, i64 40
  store i64 %58, ptr %59, align 8
  %60 = zext nneg i32 %5 to i64
  %61 = getelementptr inbounds nuw i8, ptr %8, i64 48
  store i64 %60, ptr %61, align 16
  %62 = getelementptr inbounds nuw i8, ptr %0, i64 64
  %63 = load ptr, ptr %62, align 8
  %64 = call ptr @heap_form_tuple(ptr noundef %63, ptr noundef nonnull %8, ptr noundef nonnull %9) #8
  call void @CatalogTupleInsert(ptr noundef %0, ptr noundef %64) #8
  call void @llvm.lifetime.end.p0(i64 7, ptr nonnull %9) #8
  call void @llvm.lifetime.end.p0(i64 56, ptr nonnull %8) #8
  %.not47 = icmp eq ptr %64, null
  br i1 %.not47, label %.thread53, label %.thread

.thread:                                          ; preds = %43, %40, %52
  %.152 = phi ptr [ %64, %52 ], [ %.0.ph, %40 ], [ %.0.ph, %43 ]
  call void @heap_freetuple(ptr noundef nonnull %.152) #8
  br label %.thread53

.thread53:                                        ; preds = %39, %.thread, %52
  call void @llvm.lifetime.end.p0(i64 288, ptr nonnull %7) #8
  ret void
}